target datalayout = "e-m:e-p270:32:32-p271:32:32-p272:64:64-i64:64-i128:128-f80:128-n8:16:32:64-S128"
target triple = "x86_64-pc-linux-gnu"

@.str = private unnamed_addr constant [26 x i8] c"../openssl/test/pemtest.c\00", align 1
@.str.7 = private unnamed_addr constant [2 x i8] c"b\00", align 1
@test_empty_payload.emptypay = internal global ptr @.str.28, align 8
@.str.29 = private unnamed_addr constant [51 x i8] c"PEM_read_bio_ex(b, &name, &header, &data, &len, 0)\00", align 1

; Function Attrs: nounwind uwtable
define internal i32 @test_empty_payload() #0 {
  %1 = alloca i32, align 4
  %2 = alloca ptr, align 8
  %3 = alloca ptr, align 8
  %4 = alloca ptr, align 8
  %5 = alloca ptr, align 8
  %6 = alloca i64, align 8
  %7 = alloca i32, align 4
  %8 = alloca i32, align 4
  call void @llvm.lifetime.start.p0(i64 8, ptr %2) #4
  call void @llvm.lifetime.start.p0(i64 8, ptr %3) #4
  store ptr null, ptr %3, align 8, !tbaa !4
  call void @llvm.lifetime.start.p0(i64 8, ptr %4) #4
  store ptr null, ptr %4, align 8, !tbaa !4
  call void @llvm.lifetime.start.p0(i64 8, ptr %5) #4
  store ptr null, ptr %5, align 8, !tbaa !4
  call void @llvm.lifetime.start.p0(i64 8, ptr %6) #4
  call void @llvm.lifetime.start.p0(i64 4, ptr %7) #4
  store i32 0, ptr %7, align 4, !tbaa !9
  %9 = load ptr, ptr @test_empty_payload.emptypay, align 8, !tbaa !4
  %10 = load ptr, ptr @test_empty_payload.emptypay, align 8, !tbaa !4
  %11 = call i64 @strlen(ptr noundef %10) #5
  %12 = trunc i64 %11 to i32
  %13 = call ptr @BIO_new_mem_buf(ptr noundef %9, i32 noundef %12)
  store ptr %13, ptr %2, align 8, !tbaa !11
  %14 = load ptr, ptr %2, align 8, !tbaa !11
  %15 = call i32 @test_ptr(ptr noundef @.str, i32 noundef 112, ptr noundef @.str.7, ptr noundef %14)
  %16 = icmp ne i32 %15, 0
  br i1 %16, label %18, label %17

17:                                               ; preds = %0
  store i32 0, ptr %1, align 4
  store i32 1, ptr %8, align 4
  br label %34

18:                                               ; preds = %0
  %19 = load ptr, ptr %2, align 8, !tbaa !11
  %20 = call i32 @PEM_read_bio_ex(ptr noundef %19, ptr noundef %3, ptr noundef %4, ptr noundef %5, ptr noundef %6, i32 noundef 0)
  %21 = icmp ne i32 %20, 0
  %22 = zext i1 %21 to i32
  %23 = call i32 @test_false(ptr noundef @.str, i32 noundef 116, ptr noundef @.str.29, i32 noundef %22)
  %24 = icmp ne i32 %23, 0
  br i1 %24, label %26, label %25

25:                                               ; preds = %18
  br label %27

26:                                               ; preds = %18
  store i32 1, ptr %7, align 4, !tbaa !9
  br label %27

27:                                               ; preds = %26, %25
  %28 = load ptr, ptr %3, align 8, !tbaa !4
  call void @CRYPTO_free(ptr noundef %28, ptr noundef @.str, i32 noundef 121)
  %29 = load ptr, ptr %4, align 8, !tbaa !4
  call void @CRYPTO_free(ptr noundef %29, ptr noundef @.str, i32 noundef 122)
  %30 = load ptr, ptr %5, align 8, !tbaa !4
  call void @CRYPTO_free(ptr noundef %30, ptr noundef @.str, i32 noundef 123)
  %31 = load ptr, ptr %2, align 8, !tbaa !11
  %32 = call i32 @BIO_free(ptr noundef %31)
  %33 = load i32, ptr %7, align 4, !tbaa !9
  store i32 %33, ptr %1, align 4
  store i32 1, ptr %8, align 4
  br label %34

34:                                               ; preds = %27, %17
  call void @llvm.lifetime.end.p0(i64 4, ptr %7) #4
  call void @llvm.lifetime.end.p0(i64 8, ptr %6) #4
  call void @llvm.lifetime.end.p0(i64 8, ptr %5) #4
  call void @llvm.lifetime.end.p0(i64 8, ptr %4) #4
  call void @llvm.lifetime.end.p0(i64 8, ptr %3) #4
  call void @llvm.lifetime.end.p0(i64 8, ptr %2) #4
  %35 = load i32, ptr %1, align 4
  ret i32 %35
}