; Function Attrs: nounwind uwtable
define internal range(i32 0, 2) i32 @test_empty_payload() #0 {
  %1 = alloca ptr, align 8
  %2 = alloca ptr, align 8
  %3 = alloca ptr, align 8
  %4 = alloca i64, align 8
  call void @llvm.lifetime.start.p0(i64 8, ptr nonnull %1) #4
  store ptr null, ptr %1, align 8, !tbaa !4
  call void @llvm.lifetime.start.p0(i64 8, ptr nonnull %2) #4
  store ptr null, ptr %2, align 8, !tbaa !4
  call void @llvm.lifetime.start.p0(i64 8, ptr nonnull %3) #4
  store ptr null, ptr %3, align 8, !tbaa !4
  call void @llvm.lifetime.start.p0(i64 8, ptr nonnull %4) #4
  %5 = tail call ptr @BIO_new_mem_buf(ptr noundef nonnull @.str.28, i32 noundef 55) #4
  %6 = tail call i32 @test_ptr(ptr noundef nonnull @.str, i32 noundef 112, ptr noundef nonnull @.str.7, ptr noundef %5) #4
  %.not = icmp eq i32 %6, 0
  br i1 %.not, label %16, label %7

7:                                                ; preds = %0
  %8 = call i32 @PEM_read_bio_ex(ptr noundef %5, ptr noundef nonnull %1, ptr noundef nonnull %2, ptr noundef nonnull %3, ptr noundef nonnull %4, i32 noundef 0) #4
  %9 = icmp ne i32 %8, 0
  %10 = zext i1 %9 to i32
  %11 = call i32 @test_false(ptr noundef nonnull @.str, i32 noundef 116, ptr noundef nonnull @.str.29, i32 noundef %10) #4
  %.not5 = icmp ne i32 %11, 0
  %spec.select = zext i1 %.not5 to i32
  %12 = load ptr, ptr %1, align 8, !tbaa !4
  call void @CRYPTO_free(ptr noundef %12, ptr noundef nonnull @.str, i32 noundef 121) #4
  %13 = load ptr, ptr %2, align 8, !tbaa !4
  call void @CRYPTO_free(ptr noundef %13, ptr noundef nonnull @.str, i32 noundef 122) #4
  %14 = load ptr, ptr %3, align 8, !tbaa !4
  call void @CRYPTO_free(ptr noundef %14, ptr noundef nonnull @.str, i32 noundef 123) #4
  %15 = call i32 @BIO_free(ptr noundef %5) #4
  br label %16

16:                                               ; preds = %0, %7
  %.04 = phi i32 [ %spec.select, %7 ], [ 0, %0 ]
  call void @llvm.lifetime.end.p0(i64 8, ptr nonnull %4) #4
  call void @llvm.lifetime.end.p0(i64 8, ptr nonnull %3) #4
  call void @llvm.lifetime.end.p0(i64 8, ptr nonnull %2) #4
  call void @llvm.lifetime.end.p0(i64 8, ptr nonnull %1) #4
  ret i32 %.04
}